target datalayout = "e-m:e-p270:32:32-p271:32:32-p272:64:64-i64:64-i128:128-f80:128-n8:16:32:64-S128"
target triple = "x86_64-pc-linux-gnu"

@Truth6 = internal global [6 x i64] [i64 -6148914691236517206, i64 -3689348814741910324, i64 -1085102592571150096, i64 -71777214294589696, i64 -281470681808896, i64 -4294967296], align 16
@TruthAll = internal global [16 x [1024 x i64]] zeroinitializer, align 16

; Function Attrs: nounwind uwtable
define void @If_CluInitTruthTables() #0 {
  %1 = alloca i32, align 4
  %2 = alloca i32, align 4
  call void @llvm.lifetime.start.p0(i64 4, ptr %1) #11
  call void @llvm.lifetime.start.p0(i64 4, ptr %2) #11
  store i32 0, ptr %1, align 4, !tbaa !3
  br label %3

3:                                                ; preds = %25, %0
  %4 = load i32, ptr %1, align 4, !tbaa !3
  %5 = icmp slt i32 %4, 6
  br i1 %5, label %6, label %28

6:                                                ; preds = %3
  store i32 0, ptr %2, align 4, !tbaa !3
  br label %7

7:                                                ; preds = %21, %6
  %8 = load i32, ptr %2, align 4, !tbaa !3
  %9 = icmp slt i32 %8, 1024
  br i1 %9, label %10, label %24

10:                                               ; preds = %7
  %11 = load i32, ptr %1, align 4, !tbaa !3
  %12 = sext i32 %11 to i64
  %13 = getelementptr inbounds [6 x i64], ptr @Truth6, i64 0, i64 %12
  %14 = load i64, ptr %13, align 8, !tbaa !79
  %15 = load i32, ptr %1, align 4, !tbaa !3
  %16 = sext i32 %15 to i64
  %17 = getelementptr inbounds [16 x [1024 x i64]], ptr @TruthAll, i64 0, i64 %16
  %18 = load i32, ptr %2, align 4, !tbaa !3
  %19 = sext i32 %18 to i64
  %20 = getelementptr inbounds [1024 x i64], ptr %17, i64 0, i64 %19
  store i64 %14, ptr %20, align 8, !tbaa !79
  br label %21

21:                                               ; preds = %10
  %22 = load i32, ptr %2, align 4, !tbaa !3
  %23 = add nsw i32 %22, 1
  store i32 %23, ptr %2, align 4, !tbaa !3
  br label %7, !llvm.loop !110

24:                                               ; preds = %7
  br label %25

25:                                               ; preds = %24
  %26 = load i32, ptr %1, align 4, !tbaa !3
  %27 = add nsw i32 %26, 1
  store i32 %27, ptr %1, align 4, !tbaa !3
  br label %3, !llvm.loop !111

28:                                               ; preds = %3
  store i32 6, ptr %1, align 4, !tbaa !3
  br label %29

29:                                               ; preds = %54, %28
  %30 = load i32, ptr %1, align 4, !tbaa !3
  %31 = icmp slt i32 %30, 16
  br i1 %31, label %32, label %57

32:                                               ; preds = %29
  store i32 0, ptr %2, align 4, !tbaa !3
  br label %33

33:                                               ; preds = %50, %32
  %34 = load i32, ptr %2, align 4, !tbaa !3
  %35 = icmp slt i32 %34, 1024
  br i1 %35, label %36, label %53

36:                                               ; preds = %33
  %37 = load i32, ptr %2, align 4, !tbaa !3
  %38 = load i32, ptr %1, align 4, !tbaa !3
  %39 = sub nsw i32 %38, 6
  %40 = ashr i32 %37, %39
  %41 = and i32 %40, 1
  %42 = icmp ne i32 %41, 0
  %43 = select i1 %42, i64 -1, i64 0
  %44 = load i32, ptr %1, align 4, !tbaa !3
  %45 = sext i32 %44 to i64
  %46 = getelementptr inbounds [16 x [1024 x i64]], ptr @TruthAll, i64 0, i64 %45
  %47 = load i32, ptr %2, align 4, !tbaa !3
  %48 = sext i32 %47 to i64
  %49 = getelementptr inbounds [1024 x i64], ptr %46, i64 0, i64 %48
  store i64 %43, ptr %49, align 8, !tbaa !79
  br label %50

50:                                               ; preds = %36
  %51 = load i32, ptr %2, align 4, !tbaa !3
  %52 = add nsw i32 %51, 1
  store i32 %52, ptr %2, align 4, !tbaa !3
  br label %33, !llvm.loop !112

53:                                               ; preds = %33
  br label %54

54:                                               ; preds = %53
  %55 = load i32, ptr %1, align 4, !tbaa !3
  %56 = add nsw i32 %55, 1
  store i32 %56, ptr %1, align 4, !tbaa !3
  br label %29, !llvm.loop !113

57:                                               ; preds = %29
  call void @llvm.lifetime.end.p0(i64 4, ptr %2) #11
  call void @llvm.lifetime.end.p0(i64 4, ptr %1) #11
  ret void
}