; Function Attrs: nofree norecurse nosync nounwind memory(write, argmem: none, inaccessiblemem: none) uwtable
define void @If_CluInitTruthTables() local_unnamed_addr #13 {
  br label %.preheader18

.preheader18:                                     ; preds = %0, %5
  %indvars.iv24 = phi i64 [ 0, %0 ], [ %indvars.iv.next25, %5 ]
  %1 = getelementptr inbounds nuw [6 x i64], ptr @s_Truths6, i64 0, i64 %indvars.iv24
  %2 = load i64, ptr %1, align 8, !tbaa !16
  br label %3

3:                                                ; preds = %.preheader18, %3
  %indvars.iv = phi i64 [ 0, %.preheader18 ], [ %indvars.iv.next, %3 ]
  %4 = getelementptr inbounds nuw [16 x [1024 x i64]], ptr @TruthAll, i64 0, i64 %indvars.iv24, i64 %indvars.iv
  store i64 %2, ptr %4, align 8, !tbaa !16
  %indvars.iv.next = add nuw nsw i64 %indvars.iv, 1
  %exitcond.not = icmp eq i64 %indvars.iv.next, 1024
  br i1 %exitcond.not, label %5, label %3, !llvm.loop !114

5:                                                ; preds = %3
  %indvars.iv.next25 = add nuw nsw i64 %indvars.iv24, 1
  %exitcond27.not = icmp eq i64 %indvars.iv.next25, 6
  br i1 %exitcond27.not, label %.preheader, label %.preheader18, !llvm.loop !115

.preheader:                                       ; preds = %5, %14
  %indvars.iv32 = phi i64 [ %indvars.iv.next33, %14 ], [ 6, %5 ]
  %6 = trunc i64 %indvars.iv32 to i32
  %7 = add i32 %6, -6
  %8 = shl nuw i32 1, %7
  br label %9

9:                                                ; preds = %.preheader, %9
  %indvars.iv28 = phi i64 [ 0, %.preheader ], [ %indvars.iv.next29, %9 ]
  %10 = trunc nuw nsw i64 %indvars.iv28 to i32
  %11 = and i32 %8, %10
  %.not = icmp ne i32 %11, 0
  %12 = sext i1 %.not to i64
  %13 = getelementptr inbounds nuw [16 x [1024 x i64]], ptr @TruthAll, i64 0, i64 %indvars.iv32, i64 %indvars.iv28
  store i64 %12, ptr %13, align 8, !tbaa !16
  %indvars.iv.next29 = add nuw nsw i64 %indvars.iv28, 1
  %exitcond31.not = icmp eq i64 %indvars.iv.next29, 1024
  br i1 %exitcond31.not, label %14, label %9, !llvm.loop !116

14:                                               ; preds = %9
  %indvars.iv.next33 = add nuw nsw i64 %indvars.iv32, 1
  %exitcond35.not = icmp eq i64 %indvars.iv.next33, 16
  br i1 %exitcond35.not, label %15, label %.preheader, !llvm.loop !117

15:                                               ; preds = %14
  ret void
}